target datalayout = "e-m:e-p270:32:32-p271:32:32-p272:64:64-i64:64-i128:128-f80:128-n8:16:32:64-S128"
target triple = "x86_64-pc-linux-gnu"

%"class.google::protobuf::internal::ExtensionSet" = type { ptr, i16, i16, %"union.google::protobuf::internal::ExtensionSet::AllocatedData" }
%"union.google::protobuf::internal::ExtensionSet::AllocatedData" = type { ptr }
%"struct.std::_Rb_tree_iterator" = type { ptr }
%"class.std::map" = type { %"class.std::_Rb_tree" }
%"class.std::_Rb_tree" = type { %"struct.std::_Rb_tree<int, std::pair<const int, google::protobuf::internal::ExtensionSet::Extension>, std::_Select1st<std::pair<const int, google::protobuf::internal::ExtensionSet::Extension>>, std::less<int>>::_Rb_tree_impl" }
%"struct.std::_Rb_tree<int, std::pair<const int, google::protobuf::internal::ExtensionSet::Extension>, std::_Select1st<std::pair<const int, google::protobuf::internal::ExtensionSet::Extension>>, std::less<int>>::_Rb_tree_impl" = type { [8 x i8], %"struct.std::_Rb_tree_header" }
%"struct.std::_Rb_tree_header" = type { %"struct.std::_Rb_tree_node_base", i64 }
%"struct.std::_Rb_tree_node_base" = type { i32, ptr, ptr, ptr }
%"struct.google::protobuf::internal::ExtensionSet::Extension" = type { %union.anon.4, i8, i8, i8, i8, i32, ptr }
%union.anon.4 = type { i64 }
%"struct.google::protobuf::internal::ExtensionSet::KeyValue" = type { i32, %"struct.google::protobuf::internal::ExtensionSet::Extension" }
%class.anon.18 = type { ptr, ptr, ptr, ptr }

; Function Attrs: mustprogress nounwind uwtable
define linkonce_odr hidden void @_ZNSt17_Rb_tree_iteratorISt4pairIKiN6google8protobuf8internal12ExtensionSet9ExtensionEEEC2EPSt18_Rb_tree_node_base(ptr noundef nonnull align 8 dereferenceable(8) %0, ptr noundef %1) unnamed_addr #4 comdat align 2 {
  %3 = alloca ptr, align 8
  %4 = alloca ptr, align 8
  store ptr %0, ptr %3, align 8, !tbaa !396
  store ptr %1, ptr %4, align 8, !tbaa !359
  %5 = load ptr, ptr %3, align 8
  %6 = getelementptr inbounds nuw %"struct.std::_Rb_tree_iterator", ptr %5, i32 0, i32 0
  %7 = load ptr, ptr %4, align 8, !tbaa !359
  store ptr %7, ptr %6, align 8, !tbaa !398
  ret void
}

; Function Attrs: inlinehint mustprogress uwtable
define internal void @"_ZZNK6google8protobuf8internal12ExtensionSet49InternalSerializeMessageSetWithCachedSizesToArrayEPKNS0_11MessageLiteEPhPNS0_2io19EpsCopyOutputStreamEENK3$_0clEiRKNS2_9ExtensionE"(ptr noundef nonnull align 8 dereferenceable(32) %0, i32 noundef %1, ptr noundef nonnull align 8 dereferenceable(24) %2) #13 align 2 {
  %4 = alloca ptr, align 8
  %5 = alloca i32, align 4
  %6 = alloca ptr, align 8
  store ptr %0, ptr %4, align 8, !tbaa !39
  store i32 %1, ptr %5, align 4, !tbaa !10
  store ptr %2, ptr %6, align 8, !tbaa !59
  %7 = load ptr, ptr %4, align 8
  %8 = load ptr, ptr %6, align 8, !tbaa !59
  %9 = getelementptr inbounds nuw %class.anon.18, ptr %7, i32 0, i32 1
  %10 = load ptr, ptr %9, align 8, !tbaa !496
  %11 = getelementptr inbounds nuw %class.anon.18, ptr %7, i32 0, i32 3
  %12 = load ptr, ptr %11, align 8, !tbaa !499
  %13 = load i32, ptr %5, align 4, !tbaa !10
  %14 = getelementptr inbounds nuw %class.anon.18, ptr %7, i32 0, i32 0
  %15 = load ptr, ptr %14, align 8, !tbaa !848
  %16 = load ptr, ptr %15, align 8, !tbaa !422
  %17 = getelementptr inbounds nuw %class.anon.18, ptr %7, i32 0, i32 2
  %18 = load ptr, ptr %17, align 8, !tbaa !498
  %19 = call noundef ptr @_ZNK6google8protobuf8internal12ExtensionSet9Extension53InternalSerializeMessageSetItemWithCachedSizesToArrayEPKNS0_11MessageLiteEPKS2_iPhPNS0_2io19EpsCopyOutputStreamE(ptr noundef nonnull align 8 dereferenceable(24) %8, ptr noundef %10, ptr noundef %12, i32 noundef %13, ptr noundef %16, ptr noundef %18)
  %20 = getelementptr inbounds nuw %class.anon.18, ptr %7, i32 0, i32 0
  %21 = load ptr, ptr %20, align 8, !tbaa !848
  store ptr %19, ptr %21, align 8, !tbaa !422
  ret void
}

; Function Attrs: mustprogress nounwind uwtable
define linkonce_odr hidden ptr @_ZNSt8_Rb_treeIiSt4pairIKiN6google8protobuf8internal12ExtensionSet9ExtensionEESt10_Select1stIS7_ESt4lessIiESaIS7_EE3endEv(ptr noundef nonnull align 8 dereferenceable(48) %0) #4 comdat align 2 {
  %2 = alloca %"struct.std::_Rb_tree_iterator", align 8
  %3 = alloca ptr, align 8
  store ptr %0, ptr %3, align 8, !tbaa !631
  %4 = load ptr, ptr %3, align 8
  %5 = getelementptr inbounds nuw %"class.std::_Rb_tree", ptr %4, i32 0, i32 0
  %6 = getelementptr inbounds i8, ptr %5, i64 8
  %7 = getelementptr inbounds nuw %"struct.std::_Rb_tree_header", ptr %6, i32 0, i32 0
  call void @_ZNSt17_Rb_tree_iteratorISt4pairIKiN6google8protobuf8internal12ExtensionSet9ExtensionEEEC2EPSt18_Rb_tree_node_base(ptr noundef nonnull align 8 dereferenceable(8) %2, ptr noundef %7) #3
  %8 = getelementptr inbounds nuw %"struct.std::_Rb_tree_iterator", ptr %2, i32 0, i32 0
  %9 = load ptr, ptr %8, align 8
  ret ptr %9
}

; Function Attrs: mustprogress nounwind uwtable
define linkonce_odr hidden ptr @_ZNSt8_Rb_treeIiSt4pairIKiN6google8protobuf8internal12ExtensionSet9ExtensionEESt10_Select1stIS7_ESt4lessIiESaIS7_EE5beginEv(ptr noundef nonnull align 8 dereferenceable(48) %0) #4 comdat align 2 {
  %2 = alloca %"struct.std::_Rb_tree_iterator", align 8
  %3 = alloca ptr, align 8
  store ptr %0, ptr %3, align 8, !tbaa !631
  %4 = load ptr, ptr %3, align 8
  %5 = getelementptr inbounds nuw %"class.std::_Rb_tree", ptr %4, i32 0, i32 0
  %6 = getelementptr inbounds i8, ptr %5, i64 8
  %7 = getelementptr inbounds nuw %"struct.std::_Rb_tree_header", ptr %6, i32 0, i32 0
  %8 = getelementptr inbounds nuw %"struct.std::_Rb_tree_node_base", ptr %7, i32 0, i32 2
  %9 = load ptr, ptr %8, align 8, !tbaa !731
  call void @_ZNSt17_Rb_tree_iteratorISt4pairIKiN6google8protobuf8internal12ExtensionSet9ExtensionEEEC2EPSt18_Rb_tree_node_base(ptr noundef nonnull align 8 dereferenceable(8) %2, ptr noundef %9) #3
  %10 = getelementptr inbounds nuw %"struct.std::_Rb_tree_iterator", ptr %2, i32 0, i32 0
  %11 = load ptr, ptr %10, align 8
  ret ptr %11
}

; Function Attrs: mustprogress uwtable
define internal void @"_ZN6google8protobuf8internal12ExtensionSet7ForEachIPKNS2_8KeyValueEZNKS2_49InternalSerializeMessageSetWithCachedSizesToArrayEPKNS0_11MessageLiteEPhPNS0_2io19EpsCopyOutputStreamEE3$_0EET0_T_SG_SF_"(ptr dead_on_unwind noalias writable sret(%class.anon.18) align 8 %0, ptr noundef %1, ptr noundef %2, ptr noundef byval(%class.anon.18) align 8 %3) #6 align 2 {
  %5 = alloca ptr, align 8
  %6 = alloca ptr, align 8
  %7 = alloca ptr, align 8
  store ptr %1, ptr %5, align 8, !tbaa !56
  store ptr %2, ptr %6, align 8, !tbaa !56
  call void @llvm.lifetime.start.p0(i64 8, ptr %7) #3
  %8 = load ptr, ptr %5, align 8, !tbaa !56
  store ptr %8, ptr %7, align 8, !tbaa !56
  br label %9

9:                                                ; preds = %20, %4
  %10 = load ptr, ptr %7, align 8, !tbaa !56
  %11 = load ptr, ptr %6, align 8, !tbaa !56
  %12 = icmp ne ptr %10, %11
  br i1 %12, label %14, label %13

13:                                               ; preds = %9
  call void @llvm.lifetime.end.p0(i64 8, ptr %7) #3
  br label %23

14:                                               ; preds = %9
  %15 = load ptr, ptr %7, align 8, !tbaa !56
  %16 = getelementptr inbounds nuw %"struct.google::protobuf::internal::ExtensionSet::KeyValue", ptr %15, i32 0, i32 0
  %17 = load i32, ptr %16, align 8, !tbaa !65
  %18 = load ptr, ptr %7, align 8, !tbaa !56
  %19 = getelementptr inbounds nuw %"struct.google::protobuf::internal::ExtensionSet::KeyValue", ptr %18, i32 0, i32 1
  call void @"_ZZNK6google8protobuf8internal12ExtensionSet49InternalSerializeMessageSetWithCachedSizesToArrayEPKNS0_11MessageLiteEPhPNS0_2io19EpsCopyOutputStreamEENK3$_0clEiRKNS2_9ExtensionE"(ptr noundef nonnull align 8 dereferenceable(32) %3, i32 noundef %17, ptr noundef nonnull align 8 dereferenceable(24) %19)
  br label %20

20:                                               ; preds = %14
  %21 = load ptr, ptr %7, align 8, !tbaa !56
  %22 = getelementptr inbounds nuw %"struct.google::protobuf::internal::ExtensionSet::KeyValue", ptr %21, i32 1
  store ptr %22, ptr %7, align 8, !tbaa !56
  br label %9, !llvm.loop !847

23:                                               ; preds = %13
  call void @llvm.memcpy.p0.p0.i64(ptr align 8 %0, ptr align 8 %3, i64 32, i1 false), !tbaa.struct !500
  ret void
}

; Function Attrs: mustprogress nounwind uwtable
define linkonce_odr hidden noundef ptr @_ZNK6google8protobuf8internal12ExtensionSet8flat_endEv(ptr noundef nonnull align 8 dereferenceable(24) %0) #4 comdat align 2 {
  %2 = alloca ptr, align 8
  store ptr %0, ptr %2, align 8, !tbaa !43
  %3 = load ptr, ptr %2, align 8
  %4 = getelementptr inbounds nuw %"class.google::protobuf::internal::ExtensionSet", ptr %3, i32 0, i32 3
  %5 = load ptr, ptr %4, align 8, !tbaa !20
  %6 = getelementptr inbounds nuw %"class.google::protobuf::internal::ExtensionSet", ptr %3, i32 0, i32 2
  %7 = load i16, ptr %6, align 2, !tbaa !51
  %8 = zext i16 %7 to i32
  %9 = sext i32 %8 to i64
  %10 = getelementptr inbounds %"struct.google::protobuf::internal::ExtensionSet::KeyValue", ptr %5, i64 %9
  ret ptr %10
}

; Function Attrs: mustprogress nounwind uwtable
define linkonce_odr hidden noundef ptr @_ZNK6google8protobuf8internal12ExtensionSet10flat_beginEv(ptr noundef nonnull align 8 dereferenceable(24) %0) #4 comdat align 2 {
  %2 = alloca ptr, align 8
  store ptr %0, ptr %2, align 8, !tbaa !43
  %3 = load ptr, ptr %2, align 8
  %4 = getelementptr inbounds nuw %"class.google::protobuf::internal::ExtensionSet", ptr %3, i32 0, i32 3
  %5 = load ptr, ptr %4, align 8, !tbaa !20
  ret ptr %5
}

; Function Attrs: mustprogress nounwind uwtable
define linkonce_odr hidden ptr @_ZNSt3mapIiN6google8protobuf8internal12ExtensionSet9ExtensionESt4lessIiESaISt4pairIKiS4_EEE3endEv(ptr noundef nonnull align 8 dereferenceable(48) %0) #4 comdat align 2 {
  %2 = alloca %"struct.std::_Rb_tree_iterator", align 8
  %3 = alloca ptr, align 8
  store ptr %0, ptr %3, align 8, !tbaa !54
  %4 = load ptr, ptr %3, align 8
  %5 = getelementptr inbounds nuw %"class.std::map", ptr %4, i32 0, i32 0
  %6 = call ptr @_ZNSt8_Rb_treeIiSt4pairIKiN6google8protobuf8internal12ExtensionSet9ExtensionEESt10_Select1stIS7_ESt4lessIiESaIS7_EE3endEv(ptr noundef nonnull align 8 dereferenceable(48) %5) #3
  %7 = getelementptr inbounds nuw %"struct.std::_Rb_tree_iterator", ptr %2, i32 0, i32 0
  store ptr %6, ptr %7, align 8
  %8 = getelementptr inbounds nuw %"struct.std::_Rb_tree_iterator", ptr %2, i32 0, i32 0
  %9 = load ptr, ptr %8, align 8
  ret ptr %9
}

; Function Attrs: mustprogress nounwind uwtable
define linkonce_odr hidden ptr @_ZNSt3mapIiN6google8protobuf8internal12ExtensionSet9ExtensionESt4lessIiESaISt4pairIKiS4_EEE5beginEv(ptr noundef nonnull align 8 dereferenceable(48) %0) #4 comdat align 2 {
  %2 = alloca %"struct.std::_Rb_tree_iterator", align 8
  %3 = alloca ptr, align 8
  store ptr %0, ptr %3, align 8, !tbaa !54
  %4 = load ptr, ptr %3, align 8
  %5 = getelementptr inbounds nuw %"class.std::map", ptr %4, i32 0, i32 0
  %6 = call ptr @_ZNSt8_Rb_treeIiSt4pairIKiN6google8protobuf8internal12ExtensionSet9ExtensionEESt10_Select1stIS7_ESt4lessIiESaIS7_EE5beginEv(ptr noundef nonnull align 8 dereferenceable(48) %5) #3
  %7 = getelementptr inbounds nuw %"struct.std::_Rb_tree_iterator", ptr %2, i32 0, i32 0
  store ptr %6, ptr %7, align 8
  %8 = getelementptr inbounds nuw %"struct.std::_Rb_tree_iterator", ptr %2, i32 0, i32 0
  %9 = load ptr, ptr %8, align 8
  ret ptr %9
}

; Function Attrs: mustprogress nounwind uwtable
define linkonce_odr hidden noundef zeroext i1 @_ZNK6google8protobuf8internal12ExtensionSet8is_largeEv(ptr noundef nonnull align 8 dereferenceable(24) %0) #4 comdat align 2 {
  %2 = alloca ptr, align 8
  store ptr %0, ptr %2, align 8, !tbaa !43
  %3 = load ptr, ptr %2, align 8
  %4 = getelementptr inbounds nuw %"class.google::protobuf::internal::ExtensionSet", ptr %3, i32 0, i32 2
  %5 = load i16, ptr %4, align 2, !tbaa !51
  %6 = sext i16 %5 to i32
  %7 = icmp slt i32 %6, 0
  ret i1 %7
}

; Function Attrs: mustprogress uwtable
define internal void @"_ZNK6google8protobuf8internal12ExtensionSet7ForEachIZNKS2_49InternalSerializeMessageSetWithCachedSizesToArrayEPKNS0_11MessageLiteEPhPNS0_2io19EpsCopyOutputStreamEE3$_0EET_SC_"(ptr dead_on_unwind noalias writable sret(%class.anon.18) align 8 %0, ptr noundef nonnull align 8 dereferenceable(24) %1, ptr noundef byval(%class.anon.18) align 8 %2) #6 align 2 {
  %4 = alloca ptr, align 8
  %5 = alloca %"struct.std::_Rb_tree_iterator", align 8
  %6 = alloca %"struct.std::_Rb_tree_iterator", align 8
  %7 = alloca %class.anon.18, align 8
  %8 = alloca %class.anon.18, align 8
  store ptr %1, ptr %4, align 8, !tbaa !43
  %9 = load ptr, ptr %4, align 8
  %10 = call noundef zeroext i1 @_ZNK6google8protobuf8internal12ExtensionSet8is_largeEv(ptr noundef nonnull align 8 dereferenceable(24) %9)
  %11 = zext i1 %10 to i64
  %12 = call i64 @llvm.expect.i64(i64 %11, i64 0)
  %13 = icmp ne i64 %12, 0
  br i1 %13, label %14, label %27

14:                                               ; preds = %3
  %15 = getelementptr inbounds nuw %"class.google::protobuf::internal::ExtensionSet", ptr %9, i32 0, i32 3
  %16 = load ptr, ptr %15, align 8, !tbaa !20
  %17 = call ptr @_ZNSt3mapIiN6google8protobuf8internal12ExtensionSet9ExtensionESt4lessIiESaISt4pairIKiS4_EEE5beginEv(ptr noundef nonnull align 8 dereferenceable(48) %16) #3
  %18 = getelementptr inbounds nuw %"struct.std::_Rb_tree_iterator", ptr %5, i32 0, i32 0
  store ptr %17, ptr %18, align 8
  %19 = getelementptr inbounds nuw %"class.google::protobuf::internal::ExtensionSet", ptr %9, i32 0, i32 3
  %20 = load ptr, ptr %19, align 8, !tbaa !20
  %21 = call ptr @_ZNSt3mapIiN6google8protobuf8internal12ExtensionSet9ExtensionESt4lessIiESaISt4pairIKiS4_EEE3endEv(ptr noundef nonnull align 8 dereferenceable(48) %20) #3
  %22 = getelementptr inbounds nuw %"struct.std::_Rb_tree_iterator", ptr %6, i32 0, i32 0
  store ptr %21, ptr %22, align 8
  call void @llvm.memcpy.p0.p0.i64(ptr align 8 %7, ptr align 8 %2, i64 32, i1 false), !tbaa.struct !500
  %23 = getelementptr inbounds nuw %"struct.std::_Rb_tree_iterator", ptr %5, i32 0, i32 0
  %24 = load ptr, ptr %23, align 8
  %25 = getelementptr inbounds nuw %"struct.std::_Rb_tree_iterator", ptr %6, i32 0, i32 0
  %26 = load ptr, ptr %25, align 8
  call void @"_ZN6google8protobuf8internal12ExtensionSet7ForEachISt17_Rb_tree_iteratorISt4pairIKiNS2_9ExtensionEEEZNKS2_49InternalSerializeMessageSetWithCachedSizesToArrayEPKNS0_11MessageLiteEPhPNS0_2io19EpsCopyOutputStreamEE3$_0EET0_T_SJ_SI_"(ptr dead_on_unwind writable sret(%class.anon.18) align 8 %0, ptr %24, ptr %26, ptr noundef byval(%class.anon.18) align 8 %7)
  br label %30

27:                                               ; preds = %3
  %28 = call noundef ptr @_ZNK6google8protobuf8internal12ExtensionSet10flat_beginEv(ptr noundef nonnull align 8 dereferenceable(24) %9)
  %29 = call noundef ptr @_ZNK6google8protobuf8internal12ExtensionSet8flat_endEv(ptr noundef nonnull align 8 dereferenceable(24) %9)
  call void @llvm.memcpy.p0.p0.i64(ptr align 8 %8, ptr align 8 %2, i64 32, i1 false), !tbaa.struct !500
  call void @"_ZN6google8protobuf8internal12ExtensionSet7ForEachIPKNS2_8KeyValueEZNKS2_49InternalSerializeMessageSetWithCachedSizesToArrayEPKNS0_11MessageLiteEPhPNS0_2io19EpsCopyOutputStreamEE3$_0EET0_T_SG_SF_"(ptr dead_on_unwind writable sret(%class.anon.18) align 8 %0, ptr noundef %28, ptr noundef %29, ptr noundef byval(%class.anon.18) align 8 %8)
  br label %30

30:                                               ; preds = %27, %14
  ret void
}

; Function Attrs: mustprogress uwtable
define hidden noundef ptr @_ZNK6google8protobuf8internal12ExtensionSet49InternalSerializeMessageSetWithCachedSizesToArrayEPKNS0_11MessageLiteEPhPNS0_2io19EpsCopyOutputStreamE(ptr noundef nonnull align 8 dereferenceable(24) %0, ptr noundef %1, ptr noundef %2, ptr noundef %3) #6 align 2 {
  %5 = alloca ptr, align 8
  %6 = alloca ptr, align 8
  %7 = alloca ptr, align 8
  %8 = alloca ptr, align 8
  %9 = alloca ptr, align 8
  %10 = alloca %class.anon.18, align 8
  %11 = alloca %class.anon.18, align 8
  store ptr %0, ptr %5, align 8, !tbaa !43
  store ptr %1, ptr %6, align 8, !tbaa !19
  store ptr %2, ptr %7, align 8, !tbaa !422
  store ptr %3, ptr %8, align 8, !tbaa !457
  %12 = load ptr, ptr %5, align 8
  call void @llvm.lifetime.start.p0(i64 8, ptr %9) #3
  store ptr %12, ptr %9, align 8, !tbaa !43
  %13 = getelementptr inbounds nuw %class.anon.18, ptr %10, i32 0, i32 0
  store ptr %7, ptr %13, align 8, !tbaa !494
  %14 = getelementptr inbounds nuw %class.anon.18, ptr %10, i32 0, i32 1
  %15 = load ptr, ptr %6, align 8, !tbaa !19
  store ptr %15, ptr %14, align 8, !tbaa !496
  %16 = getelementptr inbounds nuw %class.anon.18, ptr %10, i32 0, i32 2
  %17 = load ptr, ptr %8, align 8, !tbaa !457
  store ptr %17, ptr %16, align 8, !tbaa !498
  %18 = getelementptr inbounds nuw %class.anon.18, ptr %10, i32 0, i32 3
  %19 = load ptr, ptr %9, align 8, !tbaa !43
  store ptr %19, ptr %18, align 8, !tbaa !499
  call void @llvm.lifetime.start.p0(i64 32, ptr %11) #3
  call void @"_ZNK6google8protobuf8internal12ExtensionSet7ForEachIZNKS2_49InternalSerializeMessageSetWithCachedSizesToArrayEPKNS0_11MessageLiteEPhPNS0_2io19EpsCopyOutputStreamEE3$_0EET_SC_"(ptr dead_on_unwind writable sret(%class.anon.18) align 8 %11, ptr noundef nonnull align 8 dereferenceable(24) %12, ptr noundef byval(%class.anon.18) align 8 %10)
  call void @llvm.lifetime.end.p0(i64 32, ptr %11) #3
  %20 = load ptr, ptr %7, align 8, !tbaa !422
  call void @llvm.lifetime.end.p0(i64 8, ptr %9) #3
  ret ptr %20
}