; Function Attrs: mustprogress uwtable
define hidden noundef ptr @_ZNK6google8protobuf8internal12ExtensionSet49InternalSerializeMessageSetWithCachedSizesToArrayEPKNS0_11MessageLiteEPhPNS0_2io19EpsCopyOutputStreamE(ptr noundef nonnull align 8 dereferenceable(24) %0, ptr noundef %1, ptr noundef %2, ptr noundef %3) local_unnamed_addr #8 align 2 {
  %5 = alloca %class.anon.18, align 8
  %6 = alloca ptr, align 8
  %7 = alloca %class.anon.18, align 8
  store ptr %2, ptr %6, align 8, !tbaa !267
  call void @llvm.lifetime.start.p0(i64 32, ptr nonnull %7) #30
  %8 = getelementptr inbounds nuw i8, ptr %0, i64 10
  %.val = load i16, ptr %8, align 2, !tbaa !66
  %9 = getelementptr inbounds nuw i8, ptr %0, i64 16
  %.val4 = load ptr, ptr %9, align 8
  call void @llvm.lifetime.start.p0(i64 32, ptr nonnull %5)
  store ptr %6, ptr %5, align 8
  %.sroa.2.0..sroa_idx = getelementptr inbounds nuw i8, ptr %5, i64 8
  store ptr %1, ptr %.sroa.2.0..sroa_idx, align 8
  %.sroa.3.0..sroa_idx = getelementptr inbounds nuw i8, ptr %5, i64 16
  store ptr %3, ptr %.sroa.3.0..sroa_idx, align 8
  %.sroa.4.0..sroa_idx = getelementptr inbounds nuw i8, ptr %5, i64 24
  store ptr %0, ptr %.sroa.4.0..sroa_idx, align 8
  %10 = icmp slt i16 %.val, 0
  br i1 %10, label %11, label %15, !prof !50

11:                                               ; preds = %4
  %12 = getelementptr inbounds nuw i8, ptr %.val4, i64 24
  %13 = load ptr, ptr %12, align 8, !tbaa !67, !noalias !268
  %14 = getelementptr inbounds nuw i8, ptr %.val4, i64 8
  call fastcc void @"_ZN6google8protobuf8internal12ExtensionSet7ForEachISt17_Rb_tree_iteratorISt4pairIKiNS2_9ExtensionEEEZNKS2_49InternalSerializeMessageSetWithCachedSizesToArrayEPKNS0_11MessageLiteEPhPNS0_2io19EpsCopyOutputStreamEE3$_0EET0_T_SJ_SI_"(ptr dead_on_unwind noalias nonnull writable align 8 %7, ptr %13, ptr nonnull %14, ptr noundef nonnull byval(%class.anon.18) align 8 %5)
  %.pre = load ptr, ptr %6, align 8, !tbaa !267
  br label %"_ZNK6google8protobuf8internal12ExtensionSet7ForEachIZNKS2_49InternalSerializeMessageSetWithCachedSizesToArrayEPKNS0_11MessageLiteEPhPNS0_2io19EpsCopyOutputStreamEE3$_0EET_SC_.exit"

15:                                               ; preds = %4
  %16 = zext nneg i16 %.val to i64
  %17 = getelementptr inbounds nuw %"struct.google::protobuf::internal::ExtensionSet::KeyValue", ptr %.val4, i64 %16
  %.not6.i.i = icmp eq i16 %.val, 0
  br i1 %.not6.i.i, label %"_ZNK6google8protobuf8internal12ExtensionSet7ForEachIZNKS2_49InternalSerializeMessageSetWithCachedSizesToArrayEPKNS0_11MessageLiteEPhPNS0_2io19EpsCopyOutputStreamEE3$_0EET_SC_.exit", label %.lr.ph.i.i

.lr.ph.i.i:                                       ; preds = %15, %.lr.ph.i.i
  %18 = phi ptr [ %21, %.lr.ph.i.i ], [ %2, %15 ]
  %.07.i.i = phi ptr [ %22, %.lr.ph.i.i ], [ %.val4, %15 ]
  %19 = load i32, ptr %.07.i.i, align 8, !tbaa !74, !noalias !271
  %20 = getelementptr inbounds nuw i8, ptr %.07.i.i, i64 8
  %21 = call noundef ptr @_ZNK6google8protobuf8internal12ExtensionSet9Extension53InternalSerializeMessageSetItemWithCachedSizesToArrayEPKNS0_11MessageLiteEPKS2_iPhPNS0_2io19EpsCopyOutputStreamE(ptr noundef nonnull readonly align 8 dereferenceable(24) %20, ptr noundef %1, ptr nonnull poison, i32 noundef %19, ptr noundef %18, ptr noundef %3), !noalias !271
  store ptr %21, ptr %6, align 8, !tbaa !267, !noalias !271
  %22 = getelementptr inbounds nuw i8, ptr %.07.i.i, i64 32
  %.not.i.i = icmp eq ptr %22, %17
  br i1 %.not.i.i, label %"_ZNK6google8protobuf8internal12ExtensionSet7ForEachIZNKS2_49InternalSerializeMessageSetWithCachedSizesToArrayEPKNS0_11MessageLiteEPhPNS0_2io19EpsCopyOutputStreamEE3$_0EET_SC_.exit", label %.lr.ph.i.i, !llvm.loop !274

"_ZNK6google8protobuf8internal12ExtensionSet7ForEachIZNKS2_49InternalSerializeMessageSetWithCachedSizesToArrayEPKNS0_11MessageLiteEPhPNS0_2io19EpsCopyOutputStreamEE3$_0EET_SC_.exit": ; preds = %.lr.ph.i.i, %15, %11
  %23 = phi ptr [ %.pre, %11 ], [ %2, %15 ], [ %21, %.lr.ph.i.i ]
  call void @llvm.lifetime.end.p0(i64 32, ptr nonnull %5)
  call void @llvm.lifetime.end.p0(i64 32, ptr nonnull %7) #30
  ret ptr %23
}